target datalayout = "e-m:e-p270:32:32-p271:32:32-p272:64:64-i64:64-i128:128-f80:128-n8:16:32:64-S128"
target triple = "x86_64-pc-linux-gnu"

%"class.ceres::internal::DenseCholesky" = type { ptr }
%"class.ceres::internal::CudaBuffer" = type { ptr, i64, ptr }
%"class.ceres::internal::CudaBuffer.196" = type { ptr, i64, ptr }
%"class.ceres::internal::ContextImpl" = type <{ %"class.ceres::Context", %"class.ceres::internal::ThreadPool", ptr, ptr, [2 x ptr], ptr, i8, [3 x i8], i32, %struct.cudaDeviceProp, i8, [3 x i8], i32, i32, [4 x i8] }>
%"class.ceres::Context" = type { ptr }
%"class.ceres::internal::ThreadPool" = type { %"class.ceres::internal::ConcurrentQueue", %"class.std::vector.200", %"class.std::mutex" }
%"class.ceres::internal::ConcurrentQueue" = type <{ %"class.std::mutex", %"class.std::condition_variable", %"class.std::queue", i8, [7 x i8] }>
%"class.std::condition_variable" = type { %"class.std::__condvar" }
%"class.std::__condvar" = type { %union.pthread_cond_t }
%union.pthread_cond_t = type { %struct.__pthread_cond_s }
%struct.__pthread_cond_s = type { %union.__atomic_wide_counter, %union.__atomic_wide_counter, [2 x i32], [2 x i32], i32, i32, [2 x i32] }
%union.__atomic_wide_counter = type { i64 }
%"class.std::queue" = type { %"class.std::deque" }
%"class.std::deque" = type { %"class.std::_Deque_base" }
%"class.std::_Deque_base" = type { %"struct.std::_Deque_base<std::function<void ()>, std::allocator<std::function<void ()>>>::_Deque_impl" }
%"struct.std::_Deque_base<std::function<void ()>, std::allocator<std::function<void ()>>>::_Deque_impl" = type { %"struct.std::_Deque_base<std::function<void ()>, std::allocator<std::function<void ()>>>::_Deque_impl_data" }
%"struct.std::_Deque_base<std::function<void ()>, std::allocator<std::function<void ()>>>::_Deque_impl_data" = type { ptr, i64, %"struct.std::_Deque_iterator", %"struct.std::_Deque_iterator" }
%"struct.std::_Deque_iterator" = type { ptr, ptr, ptr, ptr }
%"class.std::vector.200" = type { %"struct.std::_Vector_base.201" }
%"struct.std::_Vector_base.201" = type { %"struct.std::_Vector_base<std::thread, std::allocator<std::thread>>::_Vector_impl" }
%"struct.std::_Vector_base<std::thread, std::allocator<std::thread>>::_Vector_impl" = type { %"struct.std::_Vector_base<std::thread, std::allocator<std::thread>>::_Vector_impl_data" }
%"struct.std::_Vector_base<std::thread, std::allocator<std::thread>>::_Vector_impl_data" = type { ptr, ptr, ptr }
%"class.std::mutex" = type { %"class.std::__mutex_base" }
%"class.std::__mutex_base" = type { %union.pthread_mutex_t }
%union.pthread_mutex_t = type { %struct.__pthread_mutex_s }
%struct.__pthread_mutex_s = type { i32, i32, i32, i32, i32, i16, i16, %struct.__pthread_internal_list }
%struct.__pthread_internal_list = type { ptr, ptr }
%struct.cudaDeviceProp = type { [256 x i8], %struct.CUuuid_st, [8 x i8], i32, i64, i64, i32, i32, i64, i32, [3 x i32], [3 x i32], i32, i64, i32, i32, i64, i64, i32, i32, i32, i32, i32, i32, i32, i32, i32, [2 x i32], [2 x i32], [3 x i32], [2 x i32], [3 x i32], [3 x i32], i32, [2 x i32], [3 x i32], [2 x i32], i32, [2 x i32], [3 x i32], [2 x i32], [3 x i32], i32, [2 x i32], i64, i32, i32, i32, i32, i32, i32, i32, i32, i32, i32, i32, i32, i32, i32, i32, i32, i64, i32, i32, i32, i32, i32, i32, i32, i32, i32, i32, i32, i32, i64, i32, i32, i32, i32, i64 }
%struct.CUuuid_st = type { [16 x i8] }
%"class.ceres::internal::CUDADenseCholeskyMixedPrecision" = type { %"class.ceres::internal::DenseCholesky", ptr, i64, %"class.ceres::internal::CudaBuffer", %"class.ceres::internal::CudaBuffer", %"class.ceres::internal::CudaBuffer.205", %"class.ceres::internal::CudaBuffer.205", %"class.ceres::internal::CudaBuffer.196", %"class.ceres::internal::CudaBuffer", %"class.ceres::internal::CudaBuffer.205", %"class.ceres::internal::CudaBuffer.205", %"class.ceres::internal::CudaBuffer", i32, i32 }
%"class.ceres::internal::CudaBuffer.205" = type { ptr, i64, ptr }

; Function Attrs: mustprogress nounwind uwtable
define linkonce_odr hidden noundef ptr @_ZN5ceres8internal11ContextImpl13DefaultStreamEv(ptr noundef nonnull align 8 dereferenceable(1040) %0) #1 comdat align 2 {
  %2 = alloca ptr, align 8
  store ptr %0, ptr %2, align 8
  %3 = load ptr, ptr %2, align 8
  %4 = getelementptr inbounds %"class.ceres::internal::ContextImpl", ptr %3, i32 0, i32 4
  %5 = getelementptr inbounds [2 x ptr], ptr %4, i64 0, i64 0
  %6 = load ptr, ptr %5, align 8
  ret ptr %6
}

; Function Attrs: mustprogress nounwind uwtable
define linkonce_odr hidden noundef ptr @_ZN5ceres8internal10CudaBufferIfE4dataEv(ptr noundef nonnull align 8 dereferenceable(24) %0) #1 comdat align 2 {
  %2 = alloca ptr, align 8
  store ptr %0, ptr %2, align 8
  %3 = load ptr, ptr %2, align 8
  %4 = getelementptr inbounds %"class.ceres::internal::CudaBuffer.205", ptr %3, i32 0, i32 0
  %5 = load ptr, ptr %4, align 8
  ret ptr %5
}

; Function Attrs: mustprogress nounwind uwtable
define linkonce_odr hidden noundef ptr @_ZN5ceres8internal10CudaBufferIdE4dataEv(ptr noundef nonnull align 8 dereferenceable(24) %0) #1 comdat align 2 {
  %2 = alloca ptr, align 8
  store ptr %0, ptr %2, align 8
  %3 = load ptr, ptr %2, align 8
  %4 = getelementptr inbounds %"class.ceres::internal::CudaBuffer", ptr %3, i32 0, i32 0
  %5 = load ptr, ptr %4, align 8
  ret ptr %5
}

; Function Attrs: mustprogress uwtable
define hidden noundef i32 @_ZN5ceres8internal31CUDADenseCholeskyMixedPrecision9FactorizeEiPdPNSt7__cxx1112basic_stringIcSt11char_traitsIcESaIcEEE(ptr noundef nonnull align 8 dereferenceable(248) %0, i32 noundef %1, ptr noundef %2, ptr noundef %3) unnamed_addr #2 align 2 {
  %5 = alloca ptr, align 8
  %6 = alloca i32, align 4
  %7 = alloca ptr, align 8
  %8 = alloca ptr, align 8
  store ptr %0, ptr %5, align 8
  store i32 %1, ptr %6, align 4
  store ptr %2, ptr %7, align 8
  store ptr %3, ptr %8, align 8
  %9 = load ptr, ptr %5, align 8
  %10 = load i32, ptr %6, align 4
  %11 = sext i32 %10 to i64
  %12 = getelementptr inbounds %"class.ceres::internal::CUDADenseCholeskyMixedPrecision", ptr %9, i32 0, i32 2
  store i64 %11, ptr %12, align 8
  %13 = getelementptr inbounds %"class.ceres::internal::CUDADenseCholeskyMixedPrecision", ptr %9, i32 0, i32 3
  %14 = load i32, ptr %6, align 4
  %15 = load i32, ptr %6, align 4
  %16 = mul nsw i32 %14, %15
  %17 = sext i32 %16 to i64
  call void @_ZN5ceres8internal10CudaBufferIdE7ReserveEm(ptr noundef nonnull align 8 dereferenceable(24) %13, i64 noundef %17)
  %18 = getelementptr inbounds %"class.ceres::internal::CUDADenseCholeskyMixedPrecision", ptr %9, i32 0, i32 3
  %19 = load ptr, ptr %7, align 8
  %20 = load i32, ptr %6, align 4
  %21 = load i32, ptr %6, align 4
  %22 = mul nsw i32 %20, %21
  %23 = sext i32 %22 to i64
  call void @_ZN5ceres8internal10CudaBufferIdE11CopyFromCpuEPKdm(ptr noundef nonnull align 8 dereferenceable(24) %18, ptr noundef %19, i64 noundef %23)
  %24 = getelementptr inbounds %"class.ceres::internal::CUDADenseCholeskyMixedPrecision", ptr %9, i32 0, i32 5
  %25 = load i32, ptr %6, align 4
  %26 = load i32, ptr %6, align 4
  %27 = mul nsw i32 %25, %26
  %28 = sext i32 %27 to i64
  call void @_ZN5ceres8internal10CudaBufferIfE7ReserveEm(ptr noundef nonnull align 8 dereferenceable(24) %24, i64 noundef %28)
  %29 = getelementptr inbounds %"class.ceres::internal::CUDADenseCholeskyMixedPrecision", ptr %9, i32 0, i32 3
  %30 = call noundef ptr @_ZN5ceres8internal10CudaBufferIdE4dataEv(ptr noundef nonnull align 8 dereferenceable(24) %29)
  %31 = getelementptr inbounds %"class.ceres::internal::CUDADenseCholeskyMixedPrecision", ptr %9, i32 0, i32 5
  %32 = call noundef ptr @_ZN5ceres8internal10CudaBufferIfE4dataEv(ptr noundef nonnull align 8 dereferenceable(24) %31)
  %33 = load i32, ptr %6, align 4
  %34 = load i32, ptr %6, align 4
  %35 = mul nsw i32 %33, %34
  %36 = getelementptr inbounds %"class.ceres::internal::CUDADenseCholeskyMixedPrecision", ptr %9, i32 0, i32 1
  %37 = load ptr, ptr %36, align 8
  %38 = call noundef ptr @_ZN5ceres8internal11ContextImpl13DefaultStreamEv(ptr noundef nonnull align 8 dereferenceable(1040) %37)
  call void @_ZN5ceres8internal14CudaFP64ToFP32EPKdPfiP11CUstream_st(ptr noundef %30, ptr noundef %32, i32 noundef %35, ptr noundef %38)
  %39 = load ptr, ptr %8, align 8
  %40 = call noundef i32 @_ZN5ceres8internal31CUDADenseCholeskyMixedPrecision21CudaCholeskyFactorizeEPNSt7__cxx1112basic_stringIcSt11char_traitsIcESaIcEEE(ptr noundef nonnull align 8 dereferenceable(248) %9, ptr noundef %39)
  %41 = getelementptr inbounds %"class.ceres::internal::CUDADenseCholeskyMixedPrecision", ptr %9, i32 0, i32 13
  store i32 %40, ptr %41, align 4
  %42 = getelementptr inbounds %"class.ceres::internal::CUDADenseCholeskyMixedPrecision", ptr %9, i32 0, i32 13
  %43 = load i32, ptr %42, align 4
  ret i32 %43
}