; Function Attrs: mustprogress uwtable
define hidden noundef i32 @_ZN5ceres8internal31CUDADenseCholeskyMixedPrecision9FactorizeEiPdPNSt7__cxx1112basic_stringIcSt11char_traitsIcESaIcEEE(ptr noundef nonnull align 8 dereferenceable(248) %0, i32 noundef %1, ptr noundef %2, ptr noundef %3) unnamed_addr #3 align 2 {
  %5 = sext i32 %1 to i64
  %6 = getelementptr inbounds i8, ptr %0, i64 16
  store i64 %5, ptr %6, align 8
  %7 = getelementptr inbounds i8, ptr %0, i64 24
  %8 = mul nsw i32 %1, %1
  %9 = zext nneg i32 %8 to i64
  tail call void @_ZN5ceres8internal10CudaBufferIdE7ReserveEm(ptr noundef nonnull align 8 dereferenceable(24) %7, i64 noundef %9)
  tail call void @_ZN5ceres8internal10CudaBufferIdE11CopyFromCpuEPKdm(ptr noundef nonnull align 8 dereferenceable(24) %7, ptr noundef %2, i64 noundef %9)
  %10 = getelementptr inbounds i8, ptr %0, i64 72
  tail call void @_ZN5ceres8internal10CudaBufferIfE7ReserveEm(ptr noundef nonnull align 8 dereferenceable(24) %10, i64 noundef %9)
  %11 = load ptr, ptr %7, align 8
  %12 = load ptr, ptr %10, align 8
  %13 = getelementptr inbounds i8, ptr %0, i64 8
  %14 = load ptr, ptr %13, align 8
  %15 = getelementptr inbounds i8, ptr %14, i64 264
  %16 = load ptr, ptr %15, align 8
  tail call void @_ZN5ceres8internal14CudaFP64ToFP32EPKdPfiP11CUstream_st(ptr noundef %11, ptr noundef %12, i32 noundef %8, ptr noundef %16)
  %17 = tail call noundef i32 @_ZN5ceres8internal31CUDADenseCholeskyMixedPrecision21CudaCholeskyFactorizeEPNSt7__cxx1112basic_stringIcSt11char_traitsIcESaIcEEE(ptr noundef nonnull align 8 dereferenceable(248) %0, ptr noundef %3), !range !41
  %18 = getelementptr inbounds i8, ptr %0, i64 244
  store i32 %17, ptr %18, align 4
  ret i32 %17
}